; Function Attrs: mustprogress uwtable
define void @_ZN2cv3hal8split64sEPKlPPlii(ptr noundef readonly captures(none) %0, ptr noundef readonly captures(none) %1, i32 noundef %2, i32 noundef %3) #0 personality ptr @__gxx_personality_v0 {
  %5 = alloca %"class.cv::utils::trace::details::Region", align 8
  call void @llvm.lifetime.start.p0(i64 16, ptr nonnull %5) #15
  call void @_ZN2cv5utils5trace7details6RegionC1ERKNS3_21LocationStaticStorageE(ptr noundef nonnull align 8 dereferenceable(12) %5, ptr noundef nonnull align 8 dereferenceable(32) @_ZZN2cv3hal8split64sEPKlPPliiE24__cv_trace_location_fn40)
  invoke void @_ZN2cv3hal12cpu_baseline8split64sEPKlPPlii(ptr noundef %0, ptr noundef %1, i32 noundef %2, i32 noundef %3)
          to label %.critedge unwind label %12

.critedge:                                        ; preds = %4
  %6 = getelementptr inbounds nuw i8, ptr %5, i64 8
  %7 = load i32, ptr %6, align 8, !tbaa !16
  %.not.i = icmp eq i32 %7, 0
  br i1 %.not.i, label %_ZN2cv5utils5trace7details6RegionD2Ev.exit, label %8

8:                                                ; preds = %.critedge
  invoke void @_ZN2cv5utils5trace7details6Region7destroyEv(ptr noundef nonnull align 8 dereferenceable(12) %5)
          to label %_ZN2cv5utils5trace7details6RegionD2Ev.exit unwind label %9

9:                                                ; preds = %8
  %10 = landingpad { ptr, i32 }
          catch ptr null
  %11 = extractvalue { ptr, i32 } %10, 0
  call void @__clang_call_terminate(ptr %11) #16
  unreachable

_ZN2cv5utils5trace7details6RegionD2Ev.exit:       ; preds = %.critedge, %8
  call void @llvm.lifetime.end.p0(i64 16, ptr nonnull %5) #15
  ret void

12:                                               ; preds = %4
  %13 = landingpad { ptr, i32 }
          cleanup
  call void @_ZN2cv5utils5trace7details6RegionD2Ev(ptr noundef nonnull align 8 dereferenceable(12) %5) #15
  call void @llvm.lifetime.end.p0(i64 16, ptr nonnull %5) #15
  resume { ptr, i32 } %13
}